target datalayout = "e-m:e-p270:32:32-p271:32:32-p272:64:64-i64:64-i128:128-f80:128-n8:16:32:64-S128"
target triple = "x86_64-pc-linux-gnu"

%class.ClassListParser = type { ptr, %class.ResizeableResourceHashtable, %class.FileInput, %class.inputStream, ptr, i32, ptr, ptr, i32, i32, ptr, i8, ptr, i32, ptr }
%class.ResizeableResourceHashtable = type { %class.ResourceHashtableBase.base, i32 }
%class.ResourceHashtableBase.base = type <{ %class.ResizeableResourceHashtableStorage, i32 }>
%class.ResizeableResourceHashtableStorage = type { i32, ptr }
%class.FileInput = type { %"class.inputStream::Input", ptr, %class.fileStream }
%"class.inputStream::Input" = type { ptr }
%class.fileStream = type <{ %class.outputStream, ptr, i8, [7 x i8] }>
%class.outputStream = type { ptr, i32, i8, i32, i64, %class.TimeStamp, ptr, i64 }
%class.TimeStamp = type { i64 }
%class.inputStream = type { ptr, ptr, i32, i8, ptr, i64, i64, i64, i64, i64, i64, [240 x i8] }

@.str.33 = private unnamed_addr constant [67 x i8] c"An error has occurred while processing class list file %s %zu:%d.\0A\00", align 1
@.str.34 = private unnamed_addr constant [2 x i8] c"\0A\00", align 1
@.str.35 = private unnamed_addr constant [3 x i8] c":\0A\00", align 1
@.str.36 = private unnamed_addr constant [3 x i8] c"%s\00", align 1
@.str.37 = private unnamed_addr constant [2 x i8] c" \00", align 1
@.str.38 = private unnamed_addr constant [3 x i8] c"%c\00", align 1
@.str.39 = private unnamed_addr constant [3 x i8] c"^\0A\00", align 1
@DisplayVMOutputToStdout = external global i8, align 1
@_ZN13defaultStream14_output_streamE = external global ptr, align 8
@_ZN13defaultStream13_error_streamE = external global ptr, align 8

; Function Attrs: mustprogress nounwind uwtable
define linkonce_odr hidden noundef zeroext i1 @_ZNK11inputStream12need_to_readEv(ptr noundef nonnull align 8 dereferenceable(320) %0) #1 comdat align 2 {
  %2 = alloca ptr, align 8
  store ptr %0, ptr %2, align 8
  %3 = load ptr, ptr %2, align 8
  %4 = getelementptr inbounds %class.inputStream, ptr %3, i32 0, i32 9
  %5 = load i64, ptr %4, align 8
  %6 = getelementptr inbounds %class.inputStream, ptr %3, i32 0, i32 8
  %7 = load i64, ptr %6, align 8
  %8 = icmp eq i64 %5, %7
  ret i1 %8
}

; Function Attrs: mustprogress nounwind uwtable
define linkonce_odr hidden void @_ZNK11inputStream7preloadEv(ptr noundef nonnull align 8 dereferenceable(320) %0) #1 comdat align 2 {
  %2 = alloca ptr, align 8
  store ptr %0, ptr %2, align 8
  %3 = load ptr, ptr %2, align 8
  %4 = call noundef zeroext i1 @_ZNK11inputStream12need_to_readEv(ptr noundef nonnull align 8 dereferenceable(320) %3)
  br i1 %4, label %5, label %7

5:                                                ; preds = %1
  %6 = call noundef zeroext i1 @_ZN11inputStream11fill_bufferEv(ptr noundef nonnull align 8 dereferenceable(320) %3)
  br label %7

7:                                                ; preds = %5, %1
  ret void
}

; Function Attrs: mustprogress nounwind uwtable
define linkonce_odr hidden noundef i64 @_ZNK11inputStream6linenoEv(ptr noundef nonnull align 8 dereferenceable(320) %0) #1 comdat align 2 {
  %2 = alloca ptr, align 8
  store ptr %0, ptr %2, align 8
  %3 = load ptr, ptr %2, align 8
  call void @_ZNK11inputStream7preloadEv(ptr noundef nonnull align 8 dereferenceable(320) %3)
  %4 = getelementptr inbounds %class.inputStream, ptr %3, i32 0, i32 10
  %5 = load i64, ptr %4, align 8
  ret i64 %5
}

; Function Attrs: mustprogress nounwind uwtable
define linkonce_odr hidden noundef i64 @_Z13pointer_deltaPVKvS0_m(ptr noundef %0, ptr noundef %1, i64 noundef %2) #1 comdat {
  %4 = alloca ptr, align 8
  %5 = alloca ptr, align 8
  %6 = alloca i64, align 8
  store ptr %0, ptr %4, align 8
  store ptr %1, ptr %5, align 8
  store i64 %2, ptr %6, align 8
  %7 = load ptr, ptr %4, align 8
  %8 = ptrtoint ptr %7 to i64
  %9 = load ptr, ptr %5, align 8
  %10 = ptrtoint ptr %9 to i64
  %11 = sub i64 %8, %10
  %12 = load i64, ptr %6, align 8
  %13 = udiv i64 %11, %12
  ret i64 %13
}

; Function Attrs: mustprogress nounwind uwtable
define linkonce_odr hidden noundef i64 @_ZN15ClassListParser6linenoEv(ptr noundef nonnull align 8 dereferenceable(520) %0) #1 comdat align 2 {
  %2 = alloca ptr, align 8
  store ptr %0, ptr %2, align 8
  %3 = load ptr, ptr %2, align 8
  %4 = getelementptr inbounds %class.ClassListParser, ptr %3, i32 0, i32 3
  %5 = call noundef i64 @_ZNK11inputStream6linenoEv(ptr noundef nonnull align 8 dereferenceable(320) %4)
  ret i64 %5
}

; Function Attrs: mustprogress nounwind uwtable
define linkonce_odr hidden noundef ptr @_ZN13defaultStream12error_streamEv() #1 comdat align 2 {
  %1 = load i8, ptr @DisplayVMOutputToStdout, align 1
  %2 = trunc i8 %1 to i1
  br i1 %2, label %3, label %5

3:                                                ; preds = %0
  %4 = load ptr, ptr @_ZN13defaultStream14_output_streamE, align 8
  br label %7

5:                                                ; preds = %0
  %6 = load ptr, ptr @_ZN13defaultStream13_error_streamE, align 8
  br label %7

7:                                                ; preds = %5, %3
  %8 = phi ptr [ %4, %3 ], [ %6, %5 ]
  ret ptr %8
}

; Function Attrs: mustprogress nounwind uwtable
define linkonce_odr hidden noundef i32 @_Z20pointer_delta_as_intIcEiPVKT_S2_(ptr noundef %0, ptr noundef %1) #1 comdat {
  %3 = alloca ptr, align 8
  %4 = alloca ptr, align 8
  %5 = alloca i64, align 8
  store ptr %0, ptr %3, align 8
  store ptr %1, ptr %4, align 8
  %6 = load ptr, ptr %3, align 8
  %7 = load ptr, ptr %4, align 8
  %8 = call noundef i64 @_Z13pointer_deltaPVKvS0_m(ptr noundef %6, ptr noundef %7, i64 noundef 1)
  store i64 %8, ptr %5, align 8
  %9 = load i64, ptr %5, align 8
  %10 = trunc i64 %9 to i32
  ret i32 %10
}

; Function Attrs: mustprogress nounwind uwtable
define hidden void @_ZN15ClassListParser21print_diagnostic_infoEP12outputStreamPKcP13__va_list_tag(ptr noundef nonnull align 8 dereferenceable(520) %0, ptr noundef %1, ptr noundef %2, ptr noundef %3) #1 align 2 {
  %5 = alloca ptr, align 8
  %6 = alloca ptr, align 8
  %7 = alloca ptr, align 8
  %8 = alloca ptr, align 8
  %9 = alloca i32, align 4
  %10 = alloca i32, align 4
  %11 = alloca i8, align 1
  %12 = alloca i32, align 4
  store ptr %0, ptr %5, align 8
  store ptr %1, ptr %6, align 8
  store ptr %2, ptr %7, align 8
  store ptr %3, ptr %8, align 8
  %13 = load ptr, ptr %5, align 8
  %14 = getelementptr inbounds %class.ClassListParser, ptr %13, i32 0, i32 14
  %15 = load ptr, ptr %14, align 8
  %16 = getelementptr inbounds %class.ClassListParser, ptr %13, i32 0, i32 4
  %17 = load ptr, ptr %16, align 8
  %18 = call noundef i32 @_Z20pointer_delta_as_intIcEiPVKT_S2_(ptr noundef %15, ptr noundef %17)
  store i32 %18, ptr %9, align 4
  %19 = load i32, ptr %9, align 4
  %20 = getelementptr inbounds %class.ClassListParser, ptr %13, i32 0, i32 5
  %21 = load i32, ptr %20, align 8
  %22 = icmp sge i32 %19, %21
  br i1 %22, label %23, label %27

23:                                               ; preds = %4
  %24 = getelementptr inbounds %class.ClassListParser, ptr %13, i32 0, i32 5
  %25 = load i32, ptr %24, align 8
  %26 = sub nsw i32 %25, 1
  store i32 %26, ptr %9, align 4
  br label %27

27:                                               ; preds = %23, %4
  %28 = load i32, ptr %9, align 4
  %29 = icmp slt i32 %28, 0
  br i1 %29, label %30, label %31

30:                                               ; preds = %27
  store i32 0, ptr %9, align 4
  br label %31

31:                                               ; preds = %30, %27
  %32 = call noundef ptr @_ZN13defaultStream12error_streamEv()
  %33 = getelementptr inbounds %class.ClassListParser, ptr %13, i32 0, i32 0
  %34 = load ptr, ptr %33, align 8
  %35 = call noundef i64 @_ZN15ClassListParser6linenoEv(ptr noundef nonnull align 8 dereferenceable(520) %13)
  %36 = load i32, ptr %9, align 4
  %37 = add nsw i32 %36, 1
  %38 = call i32 (ptr, ptr, ...) @jio_fprintf(ptr noundef %32, ptr noundef @.str.33, ptr noundef %34, i64 noundef %35, i32 noundef %37)
  %39 = call noundef ptr @_ZN13defaultStream12error_streamEv()
  %40 = load ptr, ptr %7, align 8
  %41 = load ptr, ptr %8, align 8
  %42 = call i32 @jio_vfprintf(ptr noundef %39, ptr noundef %40, ptr noundef %41)
  %43 = getelementptr inbounds %class.ClassListParser, ptr %13, i32 0, i32 5
  %44 = load i32, ptr %43, align 8
  %45 = icmp sle i32 %44, 0
  br i1 %45, label %46, label %48

46:                                               ; preds = %31
  %47 = load ptr, ptr %6, align 8
  call void (ptr, ptr, ...) @_ZN12outputStream5printEPKcz(ptr noundef nonnull align 8 dereferenceable(56) %47, ptr noundef @.str.34)
  br label %88

48:                                               ; preds = %31
  %49 = load ptr, ptr %6, align 8
  call void (ptr, ptr, ...) @_ZN12outputStream5printEPKcz(ptr noundef nonnull align 8 dereferenceable(56) %49, ptr noundef @.str.35)
  store i32 0, ptr %10, align 4
  br label %50

50:                                               ; preds = %72, %48
  %51 = load i32, ptr %10, align 4
  %52 = getelementptr inbounds %class.ClassListParser, ptr %13, i32 0, i32 5
  %53 = load i32, ptr %52, align 8
  %54 = icmp slt i32 %51, %53
  br i1 %54, label %55, label %75

55:                                               ; preds = %50
  %56 = getelementptr inbounds %class.ClassListParser, ptr %13, i32 0, i32 4
  %57 = load ptr, ptr %56, align 8
  %58 = load i32, ptr %10, align 4
  %59 = sext i32 %58 to i64
  %60 = getelementptr inbounds i8, ptr %57, i64 %59
  %61 = load i8, ptr %60, align 1
  store i8 %61, ptr %11, align 1
  %62 = load i8, ptr %11, align 1
  %63 = sext i8 %62 to i32
  %64 = icmp eq i32 %63, 0
  br i1 %64, label %65, label %67

65:                                               ; preds = %55
  %66 = load ptr, ptr %6, align 8
  call void (ptr, ptr, ...) @_ZN12outputStream5printEPKcz(ptr noundef nonnull align 8 dereferenceable(56) %66, ptr noundef @.str.36, ptr noundef @.str.37)
  br label %71

67:                                               ; preds = %55
  %68 = load ptr, ptr %6, align 8
  %69 = load i8, ptr %11, align 1
  %70 = sext i8 %69 to i32
  call void (ptr, ptr, ...) @_ZN12outputStream5printEPKcz(ptr noundef nonnull align 8 dereferenceable(56) %68, ptr noundef @.str.38, i32 noundef %70)
  br label %71

71:                                               ; preds = %67, %65
  br label %72

72:                                               ; preds = %71
  %73 = load i32, ptr %10, align 4
  %74 = add nsw i32 %73, 1
  store i32 %74, ptr %10, align 4
  br label %50, !llvm.loop !21

75:                                               ; preds = %50
  %76 = load ptr, ptr %6, align 8
  call void (ptr, ptr, ...) @_ZN12outputStream5printEPKcz(ptr noundef nonnull align 8 dereferenceable(56) %76, ptr noundef @.str.34)
  store i32 0, ptr %12, align 4
  br label %77

77:                                               ; preds = %83, %75
  %78 = load i32, ptr %12, align 4
  %79 = load i32, ptr %9, align 4
  %80 = icmp slt i32 %78, %79
  br i1 %80, label %81, label %86

81:                                               ; preds = %77
  %82 = load ptr, ptr %6, align 8
  call void (ptr, ptr, ...) @_ZN12outputStream5printEPKcz(ptr noundef nonnull align 8 dereferenceable(56) %82, ptr noundef @.str.36, ptr noundef @.str.37)
  br label %83

83:                                               ; preds = %81
  %84 = load i32, ptr %12, align 4
  %85 = add nsw i32 %84, 1
  store i32 %85, ptr %12, align 4
  br label %77, !llvm.loop !22

86:                                               ; preds = %77
  %87 = load ptr, ptr %6, align 8
  call void (ptr, ptr, ...) @_ZN12outputStream5printEPKcz(ptr noundef nonnull align 8 dereferenceable(56) %87, ptr noundef @.str.39)
  br label %88

88:                                               ; preds = %86, %46
  ret void
}