; Function Attrs: mustprogress nounwind uwtable
define hidden void @_ZN15ClassListParser21print_diagnostic_infoEP12outputStreamPKcP13__va_list_tag(ptr noundef nonnull align 8 dereferenceable(520) %0, ptr noundef %1, ptr noundef %2, ptr noundef %3) local_unnamed_addr #0 align 2 {
  %5 = getelementptr inbounds i8, ptr %0, i64 512
  %6 = load ptr, ptr %5, align 8
  %7 = getelementptr inbounds i8, ptr %0, i64 440
  %8 = load ptr, ptr %7, align 8
  %9 = ptrtoint ptr %6 to i64
  %10 = ptrtoint ptr %8 to i64
  %11 = sub i64 %9, %10
  %12 = trunc i64 %11 to i32
  %13 = getelementptr inbounds i8, ptr %0, i64 448
  %14 = load i32, ptr %13, align 8
  %.not = icmp sgt i32 %14, %12
  %15 = add nsw i32 %14, -1
  %spec.select = select i1 %.not, i32 %12, i32 %15
  %spec.store.select = tail call i32 @llvm.smax.i32(i32 %spec.select, i32 0)
  %16 = load i8, ptr @DisplayVMOutputToStdout, align 1
  %17 = trunc i8 %16 to i1
  %18 = load ptr, ptr @_ZN13defaultStream14_output_streamE, align 8
  %19 = load ptr, ptr @_ZN13defaultStream13_error_streamE, align 8
  %20 = select i1 %17, ptr %18, ptr %19
  %21 = load ptr, ptr %0, align 8
  %22 = getelementptr inbounds i8, ptr %0, i64 184
  %23 = load i64, ptr %22, align 8
  %24 = getelementptr inbounds i8, ptr %0, i64 176
  %25 = load i64, ptr %24, align 8
  %26 = icmp eq i64 %23, %25
  br i1 %26, label %27, label %_ZN15ClassListParser6linenoEv.exit

27:                                               ; preds = %4
  %28 = getelementptr inbounds i8, ptr %0, i64 120
  %29 = tail call noundef zeroext i1 @_ZN11inputStream11fill_bufferEv(ptr noundef nonnull align 8 dereferenceable(320) %28) #19
  br label %_ZN15ClassListParser6linenoEv.exit

_ZN15ClassListParser6linenoEv.exit:               ; preds = %4, %27
  %30 = getelementptr inbounds i8, ptr %0, i64 192
  %31 = load i64, ptr %30, align 8
  %32 = add nuw nsw i32 %spec.store.select, 1
  %33 = tail call i32 (ptr, ptr, ...) @jio_fprintf(ptr noundef %20, ptr noundef nonnull @.str.33, ptr noundef %21, i64 noundef %31, i32 noundef %32) #19
  %34 = load i8, ptr @DisplayVMOutputToStdout, align 1
  %35 = trunc i8 %34 to i1
  %36 = load ptr, ptr @_ZN13defaultStream14_output_streamE, align 8
  %37 = load ptr, ptr @_ZN13defaultStream13_error_streamE, align 8
  %38 = select i1 %35, ptr %36, ptr %37
  %39 = tail call i32 @jio_vfprintf(ptr noundef %38, ptr noundef %2, ptr noundef %3) #19
  %40 = load i32, ptr %13, align 8
  %41 = icmp slt i32 %40, 1
  br i1 %41, label %._crit_edge29, label %42

42:                                               ; preds = %_ZN15ClassListParser6linenoEv.exit
  tail call void (ptr, ptr, ...) @_ZN12outputStream5printEPKcz(ptr noundef nonnull align 8 dereferenceable(56) %1, ptr noundef nonnull @.str.35) #19
  %43 = load i32, ptr %13, align 8
  %44 = icmp sgt i32 %43, 0
  br i1 %44, label %.lr.ph, label %._crit_edge

.lr.ph:                                           ; preds = %42, %52
  %indvars.iv = phi i64 [ %indvars.iv.next, %52 ], [ 0, %42 ]
  %45 = load ptr, ptr %7, align 8
  %46 = getelementptr inbounds i8, ptr %45, i64 %indvars.iv
  %47 = load i8, ptr %46, align 1
  %48 = icmp eq i8 %47, 0
  br i1 %48, label %49, label %50

49:                                               ; preds = %.lr.ph
  tail call void (ptr, ptr, ...) @_ZN12outputStream5printEPKcz(ptr noundef nonnull align 8 dereferenceable(56) %1, ptr noundef nonnull @.str.36, ptr noundef nonnull @.str.37) #19
  br label %52

50:                                               ; preds = %.lr.ph
  %51 = sext i8 %47 to i32
  tail call void (ptr, ptr, ...) @_ZN12outputStream5printEPKcz(ptr noundef nonnull align 8 dereferenceable(56) %1, ptr noundef nonnull @.str.38, i32 noundef %51) #19
  br label %52

52:                                               ; preds = %49, %50
  %indvars.iv.next = add nuw nsw i64 %indvars.iv, 1
  %53 = load i32, ptr %13, align 8
  %54 = sext i32 %53 to i64
  %55 = icmp slt i64 %indvars.iv.next, %54
  br i1 %55, label %.lr.ph, label %._crit_edge, !llvm.loop !28

._crit_edge:                                      ; preds = %52, %42
  tail call void (ptr, ptr, ...) @_ZN12outputStream5printEPKcz(ptr noundef nonnull align 8 dereferenceable(56) %1, ptr noundef nonnull @.str.34) #19
  %56 = icmp sgt i32 %spec.select, 0
  br i1 %56, label %.lr.ph28, label %._crit_edge29

.lr.ph28:                                         ; preds = %._crit_edge, %.lr.ph28
  %.026 = phi i32 [ %57, %.lr.ph28 ], [ 0, %._crit_edge ]
  tail call void (ptr, ptr, ...) @_ZN12outputStream5printEPKcz(ptr noundef nonnull align 8 dereferenceable(56) %1, ptr noundef nonnull @.str.36, ptr noundef nonnull @.str.37) #19
  %57 = add nuw nsw i32 %.026, 1
  %exitcond.not = icmp eq i32 %57, %spec.select
  br i1 %exitcond.not, label %._crit_edge29, label %.lr.ph28, !llvm.loop !29

._crit_edge29:                                    ; preds = %.lr.ph28, %._crit_edge, %_ZN15ClassListParser6linenoEv.exit
  %.str.39.sink = phi ptr [ @.str.34, %_ZN15ClassListParser6linenoEv.exit ], [ @.str.39, %._crit_edge ], [ @.str.39, %.lr.ph28 ]
  tail call void (ptr, ptr, ...) @_ZN12outputStream5printEPKcz(ptr noundef nonnull align 8 dereferenceable(56) %1, ptr noundef nonnull %.str.39.sink) #19
  ret void
}